; Function Attrs: mustprogress nounwind uwtable
define dso_local void @_ZN4node20EmbedderSnapshotData19BuiltinSnapshotDataEv(ptr noalias nocapture writeonly sret(%"class.std::unique_ptr.368") align 8 %agg.result) local_unnamed_addr #3 align 2 {
entry:
  %call = tail call noalias noundef nonnull dereferenceable(16) ptr @_Znwm(i64 noundef 16) #24
  %call1 = tail call noundef ptr @_ZN4node15SnapshotBuilder23GetEmbeddedSnapshotDataEv() #22
  store ptr %call1, ptr %call, align 8
  %owns_impl_.i = getelementptr inbounds i8, ptr %call, i64 8
  store i8 0, ptr %owns_impl_.i, align 8
  store ptr %call, ptr %agg.result, align 8
  ret void
}